target datalayout = "e-m:e-p270:32:32-p271:32:32-p272:64:64-i64:64-i128:128-f80:128-n8:16:32:64-S128"
target triple = "x86_64-pc-linux-gnu"

; Function Attrs: nounwind uwtable
define dso_local i32 @strcmp_offset(ptr noundef %0, ptr noundef %1, ptr noundef %2) #0 {
  %4 = alloca i32, align 4
  %5 = alloca ptr, align 8
  %6 = alloca ptr, align 8
  %7 = alloca ptr, align 8
  %8 = alloca i64, align 8
  %9 = alloca i32, align 4
  store ptr %0, ptr %5, align 8, !tbaa !11
  store ptr %1, ptr %6, align 8, !tbaa !11
  store ptr %2, ptr %7, align 8, !tbaa !82
  call void @llvm.lifetime.start.p0(i64 8, ptr %8) #12
  %10 = load ptr, ptr %7, align 8, !tbaa !82
  %11 = icmp ne ptr %10, null
  br i1 %11, label %16, label %12

12:                                               ; preds = %3
  %13 = load ptr, ptr %5, align 8, !tbaa !11
  %14 = load ptr, ptr %6, align 8, !tbaa !11
  %15 = call i32 @strcmp(ptr noundef %13, ptr noundef %14) #13
  store i32 %15, ptr %4, align 4
  store i32 1, ptr %9, align 4
  br label %55

16:                                               ; preds = %3
  store i64 0, ptr %8, align 8, !tbaa !31
  br label %17

17:                                               ; preds = %38, %16
  %18 = load ptr, ptr %5, align 8, !tbaa !11
  %19 = load i64, ptr %8, align 8, !tbaa !31
  %20 = getelementptr inbounds nuw i8, ptr %18, i64 %19
  %21 = load i8, ptr %20, align 1, !tbaa !73
  %22 = sext i8 %21 to i32
  %23 = load ptr, ptr %6, align 8, !tbaa !11
  %24 = load i64, ptr %8, align 8, !tbaa !31
  %25 = getelementptr inbounds nuw i8, ptr %23, i64 %24
  %26 = load i8, ptr %25, align 1, !tbaa !73
  %27 = sext i8 %26 to i32
  %28 = icmp eq i32 %22, %27
  br i1 %28, label %29, label %41

29:                                               ; preds = %17
  %30 = load ptr, ptr %5, align 8, !tbaa !11
  %31 = load i64, ptr %8, align 8, !tbaa !31
  %32 = getelementptr inbounds nuw i8, ptr %30, i64 %31
  %33 = load i8, ptr %32, align 1, !tbaa !73
  %34 = sext i8 %33 to i32
  %35 = icmp eq i32 %34, 0
  br i1 %35, label %36, label %37

36:                                               ; preds = %29
  br label %41

37:                                               ; preds = %29
  br label %38

38:                                               ; preds = %37
  %39 = load i64, ptr %8, align 8, !tbaa !31
  %40 = add i64 %39, 1
  store i64 %40, ptr %8, align 8, !tbaa !31
  br label %17, !llvm.loop !84

41:                                               ; preds = %36, %17
  %42 = load i64, ptr %8, align 8, !tbaa !31
  %43 = load ptr, ptr %7, align 8, !tbaa !82
  store i64 %42, ptr %43, align 8, !tbaa !31
  %44 = load ptr, ptr %5, align 8, !tbaa !11
  %45 = load i64, ptr %8, align 8, !tbaa !31
  %46 = getelementptr inbounds nuw i8, ptr %44, i64 %45
  %47 = load i8, ptr %46, align 1, !tbaa !73
  %48 = zext i8 %47 to i32
  %49 = load ptr, ptr %6, align 8, !tbaa !11
  %50 = load i64, ptr %8, align 8, !tbaa !31
  %51 = getelementptr inbounds nuw i8, ptr %49, i64 %50
  %52 = load i8, ptr %51, align 1, !tbaa !73
  %53 = zext i8 %52 to i32
  %54 = sub nsw i32 %48, %53
  store i32 %54, ptr %4, align 4
  store i32 1, ptr %9, align 4
  br label %55

55:                                               ; preds = %41, %12
  call void @llvm.lifetime.end.p0(i64 8, ptr %8) #12
  %56 = load i32, ptr %4, align 4
  ret i32 %56
}