; Function Attrs: nofree nounwind memory(argmem: readwrite) uwtable
define dso_local i32 @strcmp_offset(ptr noundef readonly captures(none) %0, ptr noundef readonly captures(none) %1, ptr noundef writeonly %2) local_unnamed_addr #10 {
  %.not = icmp eq ptr %2, null
  br i1 %.not, label %4, label %.preheader

4:                                                ; preds = %3
  %5 = tail call i32 @strcmp(ptr noundef nonnull dereferenceable(1) %0, ptr noundef nonnull dereferenceable(1) %1) #29
  br label %21

.preheader:                                       ; preds = %3, %.preheader
  %.0 = phi i64 [ %12, %.preheader ], [ 0, %3 ]
  %6 = getelementptr inbounds nuw i8, ptr %0, i64 %.0
  %7 = load i8, ptr %6, align 1, !tbaa !38
  %8 = getelementptr inbounds nuw i8, ptr %1, i64 %.0
  %9 = load i8, ptr %8, align 1, !tbaa !38
  %10 = icmp ne i8 %7, %9
  %11 = icmp eq i8 %7, 0
  %or.cond = or i1 %11, %10
  %12 = add i64 %.0, 1
  br i1 %or.cond, label %13, label %.preheader, !llvm.loop !39

13:                                               ; preds = %.preheader
  %14 = getelementptr inbounds nuw i8, ptr %0, i64 %.0
  %15 = getelementptr inbounds nuw i8, ptr %1, i64 %.0
  store i64 %.0, ptr %2, align 8, !tbaa !72
  %16 = load i8, ptr %14, align 1, !tbaa !38
  %17 = zext i8 %16 to i32
  %18 = load i8, ptr %15, align 1, !tbaa !38
  %19 = zext i8 %18 to i32
  %20 = sub nsw i32 %17, %19
  br label %21

21:                                               ; preds = %13, %4
  %.016 = phi i32 [ %20, %13 ], [ %5, %4 ]
  ret i32 %.016
}